target datalayout = "e-m:e-p270:32:32-p271:32:32-p272:64:64-i64:64-i128:128-f80:128-n8:16:32:64-S128"
target triple = "x86_64-pc-linux-gnu"

%struct.reftable_buf = type { i64, i64, ptr }

@reftable_realloc_ptr = internal global ptr null, align 8
@reftable_free_ptr = internal global ptr null, align 8
@.str = private unnamed_addr constant [27 x i8] c"size_t overflow: %lu * %lu\00", align 1

; Function Attrs: nounwind uwtable
define dso_local void @reftable_free(ptr noundef %0) #0 {
  %2 = alloca ptr, align 8
  store ptr %0, ptr %2, align 8, !tbaa !8
  %3 = load ptr, ptr @reftable_free_ptr, align 8, !tbaa !8
  %4 = icmp ne ptr %3, null
  br i1 %4, label %5, label %8

5:                                                ; preds = %1
  %6 = load ptr, ptr @reftable_free_ptr, align 8, !tbaa !8
  %7 = load ptr, ptr %2, align 8, !tbaa !8
  call void %6(ptr noundef %7)
  br label %10

8:                                                ; preds = %1
  %9 = load ptr, ptr %2, align 8, !tbaa !8
  call void @free(ptr noundef %9) #13
  br label %10

10:                                               ; preds = %8, %5
  ret void
}

; Function Attrs: nounwind uwtable
define dso_local ptr @reftable_realloc(ptr noundef %0, i64 noundef %1) #0 {
  %3 = alloca ptr, align 8
  %4 = alloca ptr, align 8
  %5 = alloca i64, align 8
  store ptr %0, ptr %4, align 8, !tbaa !8
  store i64 %1, ptr %5, align 8, !tbaa !4
  %6 = load i64, ptr %5, align 8, !tbaa !4
  %7 = icmp ne i64 %6, 0
  br i1 %7, label %10, label %8

8:                                                ; preds = %2
  %9 = load ptr, ptr %4, align 8, !tbaa !8
  call void @reftable_free(ptr noundef %9)
  store ptr null, ptr %3, align 8
  br label %22

10:                                               ; preds = %2
  %11 = load ptr, ptr @reftable_realloc_ptr, align 8, !tbaa !8
  %12 = icmp ne ptr %11, null
  br i1 %12, label %13, label %18

13:                                               ; preds = %10
  %14 = load ptr, ptr @reftable_realloc_ptr, align 8, !tbaa !8
  %15 = load ptr, ptr %4, align 8, !tbaa !8
  %16 = load i64, ptr %5, align 8, !tbaa !4
  %17 = call ptr %14(ptr noundef %15, i64 noundef %16)
  store ptr %17, ptr %3, align 8
  br label %22

18:                                               ; preds = %10
  %19 = load ptr, ptr %4, align 8, !tbaa !8
  %20 = load i64, ptr %5, align 8, !tbaa !4
  %21 = call ptr @realloc(ptr noundef %19, i64 noundef %20) #12
  store ptr %21, ptr %3, align 8
  br label %22

22:                                               ; preds = %18, %13, %8
  %23 = load ptr, ptr %3, align 8
  ret ptr %23
}

; Function Attrs: inlinehint nounwind uwtable
define internal i64 @st_mult(i64 noundef %0, i64 noundef %1) #8 {
  %3 = alloca i64, align 8
  %4 = alloca i64, align 8
  store i64 %0, ptr %3, align 8, !tbaa !4
  store i64 %1, ptr %4, align 8, !tbaa !4
  %5 = load i64, ptr %3, align 8, !tbaa !4
  %6 = icmp ne i64 %5, 0
  br i1 %6, label %7, label %15

7:                                                ; preds = %2
  %8 = load i64, ptr %4, align 8, !tbaa !4
  %9 = load i64, ptr %3, align 8, !tbaa !4
  %10 = udiv i64 -1, %9
  %11 = icmp ugt i64 %8, %10
  br i1 %11, label %12, label %15

12:                                               ; preds = %7
  %13 = load i64, ptr %3, align 8, !tbaa !4
  %14 = load i64, ptr %4, align 8, !tbaa !4
  call void (ptr, ...) @die(ptr noundef @.str, i64 noundef %13, i64 noundef %14) #16
  unreachable

15:                                               ; preds = %7, %2
  %16 = load i64, ptr %3, align 8, !tbaa !4
  %17 = load i64, ptr %4, align 8, !tbaa !4
  %18 = mul i64 %16, %17
  ret i64 %18
}

; Function Attrs: inlinehint nounwind uwtable
define internal ptr @reftable_alloc_grow(ptr noundef %0, i64 noundef %1, i64 noundef %2, ptr noundef %3) #8 {
  %5 = alloca ptr, align 8
  %6 = alloca ptr, align 8
  %7 = alloca i64, align 8
  %8 = alloca i64, align 8
  %9 = alloca ptr, align 8
  %10 = alloca ptr, align 8
  %11 = alloca i64, align 8
  %12 = alloca i32, align 4
  store ptr %0, ptr %6, align 8, !tbaa !8
  store i64 %1, ptr %7, align 8, !tbaa !4
  store i64 %2, ptr %8, align 8, !tbaa !4
  store ptr %3, ptr %9, align 8, !tbaa !22
  call void @llvm.lifetime.start.p0(i64 8, ptr %10) #13
  call void @llvm.lifetime.start.p0(i64 8, ptr %11) #13
  %13 = load ptr, ptr %9, align 8, !tbaa !22
  %14 = load i64, ptr %13, align 8, !tbaa !4
  %15 = mul i64 %14, 2
  %16 = add i64 %15, 1
  store i64 %16, ptr %11, align 8, !tbaa !4
  %17 = load i64, ptr %11, align 8, !tbaa !4
  %18 = load i64, ptr %7, align 8, !tbaa !4
  %19 = icmp ult i64 %17, %18
  br i1 %19, label %20, label %22

20:                                               ; preds = %4
  %21 = load i64, ptr %7, align 8, !tbaa !4
  store i64 %21, ptr %11, align 8, !tbaa !4
  br label %22

22:                                               ; preds = %20, %4
  %23 = load ptr, ptr %6, align 8, !tbaa !8
  %24 = load i64, ptr %8, align 8, !tbaa !4
  %25 = load i64, ptr %11, align 8, !tbaa !4
  %26 = call i64 @st_mult(i64 noundef %24, i64 noundef %25)
  %27 = call ptr @reftable_realloc(ptr noundef %23, i64 noundef %26)
  store ptr %27, ptr %10, align 8, !tbaa !8
  %28 = load ptr, ptr %10, align 8, !tbaa !8
  %29 = icmp ne ptr %28, null
  br i1 %29, label %32, label %30

30:                                               ; preds = %22
  %31 = load ptr, ptr %6, align 8, !tbaa !8
  store ptr %31, ptr %5, align 8
  store i32 1, ptr %12, align 4
  br label %36

32:                                               ; preds = %22
  %33 = load i64, ptr %11, align 8, !tbaa !4
  %34 = load ptr, ptr %9, align 8, !tbaa !22
  store i64 %33, ptr %34, align 8, !tbaa !4
  %35 = load ptr, ptr %10, align 8, !tbaa !8
  store ptr %35, ptr %5, align 8
  store i32 1, ptr %12, align 4
  br label %36

36:                                               ; preds = %32, %30
  call void @llvm.lifetime.end.p0(i64 8, ptr %11) #13
  call void @llvm.lifetime.end.p0(i64 8, ptr %10) #13
  %37 = load ptr, ptr %5, align 8
  ret ptr %37
}

; Function Attrs: nounwind uwtable
define dso_local i32 @reftable_buf_add(ptr noundef %0, ptr noundef %1, i64 noundef %2) #0 {
  %4 = alloca i32, align 4
  %5 = alloca ptr, align 8
  %6 = alloca ptr, align 8
  %7 = alloca i64, align 8
  %8 = alloca i64, align 8
  %9 = alloca i32, align 4
  store ptr %0, ptr %5, align 8, !tbaa !12
  store ptr %1, ptr %6, align 8, !tbaa !8
  store i64 %2, ptr %7, align 8, !tbaa !4
  call void @llvm.lifetime.start.p0(i64 8, ptr %8) #13
  %10 = load ptr, ptr %5, align 8, !tbaa !12
  %11 = getelementptr inbounds nuw %struct.reftable_buf, ptr %10, i32 0, i32 1
  %12 = load i64, ptr %11, align 8, !tbaa !18
  %13 = load i64, ptr %7, align 8, !tbaa !4
  %14 = add i64 %12, %13
  store i64 %14, ptr %8, align 8, !tbaa !4
  %15 = load i64, ptr %8, align 8, !tbaa !4
  %16 = add i64 %15, 1
  %17 = load ptr, ptr %5, align 8, !tbaa !12
  %18 = getelementptr inbounds nuw %struct.reftable_buf, ptr %17, i32 0, i32 0
  %19 = load i64, ptr %18, align 8, !tbaa !17
  %20 = icmp ugt i64 %16, %19
  br i1 %20, label %21, label %47

21:                                               ; preds = %3
  %22 = load i64, ptr %8, align 8, !tbaa !4
  %23 = add i64 %22, 1
  %24 = load ptr, ptr %5, align 8, !tbaa !12
  %25 = getelementptr inbounds nuw %struct.reftable_buf, ptr %24, i32 0, i32 0
  %26 = load i64, ptr %25, align 8, !tbaa !17
  %27 = icmp ugt i64 %23, %26
  br i1 %27, label %28, label %46

28:                                               ; preds = %21
  %29 = load ptr, ptr %5, align 8, !tbaa !12
  %30 = getelementptr inbounds nuw %struct.reftable_buf, ptr %29, i32 0, i32 2
  %31 = load ptr, ptr %30, align 8, !tbaa !15
  %32 = load i64, ptr %8, align 8, !tbaa !4
  %33 = add i64 %32, 1
  %34 = load ptr, ptr %5, align 8, !tbaa !12
  %35 = getelementptr inbounds nuw %struct.reftable_buf, ptr %34, i32 0, i32 0
  %36 = call ptr @reftable_alloc_grow(ptr noundef %31, i64 noundef %33, i64 noundef 1, ptr noundef %35)
  %37 = load ptr, ptr %5, align 8, !tbaa !12
  %38 = getelementptr inbounds nuw %struct.reftable_buf, ptr %37, i32 0, i32 2
  store ptr %36, ptr %38, align 8, !tbaa !15
  %39 = load i64, ptr %8, align 8, !tbaa !4
  %40 = add i64 %39, 1
  %41 = load ptr, ptr %5, align 8, !tbaa !12
  %42 = getelementptr inbounds nuw %struct.reftable_buf, ptr %41, i32 0, i32 0
  %43 = load i64, ptr %42, align 8, !tbaa !17
  %44 = icmp ugt i64 %40, %43
  br i1 %44, label %45, label %46

45:                                               ; preds = %28
  store i32 -13, ptr %4, align 4
  store i32 1, ptr %9, align 4
  br label %65

46:                                               ; preds = %28, %21
  br label %47

47:                                               ; preds = %46, %3
  %48 = load ptr, ptr %5, align 8, !tbaa !12
  %49 = getelementptr inbounds nuw %struct.reftable_buf, ptr %48, i32 0, i32 2
  %50 = load ptr, ptr %49, align 8, !tbaa !15
  %51 = load ptr, ptr %5, align 8, !tbaa !12
  %52 = getelementptr inbounds nuw %struct.reftable_buf, ptr %51, i32 0, i32 1
  %53 = load i64, ptr %52, align 8, !tbaa !18
  %54 = getelementptr inbounds nuw i8, ptr %50, i64 %53
  %55 = load ptr, ptr %6, align 8, !tbaa !8
  %56 = load i64, ptr %7, align 8, !tbaa !4
  call void @llvm.memcpy.p0.p0.i64(ptr align 1 %54, ptr align 1 %55, i64 %56, i1 false)
  %57 = load ptr, ptr %5, align 8, !tbaa !12
  %58 = getelementptr inbounds nuw %struct.reftable_buf, ptr %57, i32 0, i32 2
  %59 = load ptr, ptr %58, align 8, !tbaa !15
  %60 = load i64, ptr %8, align 8, !tbaa !4
  %61 = getelementptr inbounds nuw i8, ptr %59, i64 %60
  store i8 0, ptr %61, align 1, !tbaa !19
  %62 = load i64, ptr %8, align 8, !tbaa !4
  %63 = load ptr, ptr %5, align 8, !tbaa !12
  %64 = getelementptr inbounds nuw %struct.reftable_buf, ptr %63, i32 0, i32 1
  store i64 %62, ptr %64, align 8, !tbaa !18
  store i32 0, ptr %4, align 4
  store i32 1, ptr %9, align 4
  br label %65

65:                                               ; preds = %47, %45
  call void @llvm.lifetime.end.p0(i64 8, ptr %8) #13
  %66 = load i32, ptr %4, align 4
  ret i32 %66
}

; Function Attrs: nounwind uwtable
define dso_local i32 @reftable_buf_addstr(ptr noundef %0, ptr noundef %1) #0 {
  %3 = alloca ptr, align 8
  %4 = alloca ptr, align 8
  store ptr %0, ptr %3, align 8, !tbaa !12
  store ptr %1, ptr %4, align 8, !tbaa !10
  %5 = load ptr, ptr %3, align 8, !tbaa !12
  %6 = load ptr, ptr %4, align 8, !tbaa !10
  %7 = load ptr, ptr %4, align 8, !tbaa !10
  %8 = call i64 @strlen(ptr noundef %7) #14
  %9 = call i32 @reftable_buf_add(ptr noundef %5, ptr noundef %6, i64 noundef %8)
  ret i32 %9
}