; Function Attrs: nounwind uwtable
define dso_local range(i32 -13, 1) i32 @reftable_buf_addstr(ptr noundef captures(none) %0, ptr noundef readonly captures(none) %1) local_unnamed_addr #0 {
  %3 = tail call i64 @strlen(ptr noundef nonnull dereferenceable(1) %1) #23
  %4 = getelementptr inbounds nuw i8, ptr %0, i64 8
  %5 = load i64, ptr %4, align 8, !tbaa !13
  %6 = add i64 %5, %3
  %7 = add i64 %6, 1
  %8 = load i64, ptr %0, align 8, !tbaa !12
  %9 = icmp ugt i64 %7, %8
  %10 = getelementptr inbounds nuw i8, ptr %0, i64 16
  %11 = load ptr, ptr %10, align 8, !tbaa !8
  br i1 %9, label %st_mult.exit.i.i, label %._crit_edge.i

st_mult.exit.i.i:                                 ; preds = %2
  %12 = shl i64 %8, 1
  %13 = or disjoint i64 %12, 1
  %spec.select.i.i = tail call i64 @llvm.umax.i64(i64 %13, i64 %7)
  %14 = load ptr, ptr @reftable_realloc_ptr, align 8, !tbaa !4
  %.not8.i.i.i = icmp eq ptr %14, null
  br i1 %.not8.i.i.i, label %17, label %15

15:                                               ; preds = %st_mult.exit.i.i
  %16 = tail call ptr %14(ptr noundef %11, i64 noundef %spec.select.i.i) #20
  br label %reftable_realloc.exit.i.i

17:                                               ; preds = %st_mult.exit.i.i
  %18 = tail call ptr @realloc(ptr noundef %11, i64 noundef %spec.select.i.i) #22
  br label %reftable_realloc.exit.i.i

reftable_realloc.exit.i.i:                        ; preds = %17, %15
  %.0.i.i.i = phi ptr [ %16, %15 ], [ %18, %17 ]
  %.not.i.i = icmp eq ptr %.0.i.i.i, null
  br i1 %.not.i.i, label %reftable_alloc_grow.exit.i, label %reftable_alloc_grow.exit.thread.i

reftable_alloc_grow.exit.thread.i:                ; preds = %reftable_realloc.exit.i.i
  store i64 %spec.select.i.i, ptr %0, align 8, !tbaa !15
  store ptr %.0.i.i.i, ptr %10, align 8, !tbaa !8
  br label %reftable_alloc_grow.exit._crit_edge.i

reftable_alloc_grow.exit.i:                       ; preds = %reftable_realloc.exit.i.i
  %.pre.i = load i64, ptr %0, align 8, !tbaa !12
  store ptr %11, ptr %10, align 8, !tbaa !8
  %19 = icmp ugt i64 %7, %.pre.i
  br i1 %19, label %reftable_buf_add.exit, label %reftable_alloc_grow.exit._crit_edge.i

reftable_alloc_grow.exit._crit_edge.i:            ; preds = %reftable_alloc_grow.exit.i, %reftable_alloc_grow.exit.thread.i
  %.012.i25.i = phi ptr [ %.0.i.i.i, %reftable_alloc_grow.exit.thread.i ], [ %11, %reftable_alloc_grow.exit.i ]
  %.pre23.i = load i64, ptr %4, align 8, !tbaa !13
  br label %._crit_edge.i

._crit_edge.i:                                    ; preds = %reftable_alloc_grow.exit._crit_edge.i, %2
  %20 = phi i64 [ %.pre23.i, %reftable_alloc_grow.exit._crit_edge.i ], [ %5, %2 ]
  %21 = phi ptr [ %.012.i25.i, %reftable_alloc_grow.exit._crit_edge.i ], [ %11, %2 ]
  %22 = getelementptr inbounds nuw i8, ptr %21, i64 %20
  tail call void @llvm.memcpy.p0.p0.i64(ptr align 1 %22, ptr nonnull readonly align 1 %1, i64 %3, i1 false)
  %23 = load ptr, ptr %10, align 8, !tbaa !8
  %24 = getelementptr inbounds nuw i8, ptr %23, i64 %6
  store i8 0, ptr %24, align 1, !tbaa !14
  store i64 %6, ptr %4, align 8, !tbaa !13
  br label %reftable_buf_add.exit

reftable_buf_add.exit:                            ; preds = %reftable_alloc_grow.exit.i, %._crit_edge.i
  %.0.i = phi i32 [ 0, %._crit_edge.i ], [ -13, %reftable_alloc_grow.exit.i ]
  ret i32 %.0.i
}